; ModuleID = '21/2098.c'
source_filename = "21/2098.c"
target datalayout = "e-m:e-p270:32:32-p271:32:32-p272:64:64-i64:64-f80:128-n8:16:32:64-S128"
target triple = "x86_64-pc-linux-gnu"

@.str = private unnamed_addr constant [3 x i8] c"%d\00", align 1
@.str.1 = private unnamed_addr constant [4 x i8] c"%d,\00", align 1

; Function Attrs: noinline nounwind uwtable
define dso_local i32 @main() #0 {
  %1 = alloca i32, align 4
  %2 = alloca i32, align 4
  %3 = alloca i32, align 4
  %4 = alloca i32, align 4
  %5 = alloca i32, align 4
  %6 = alloca i32, align 4
  %7 = alloca i32, align 4
  %8 = alloca [400 x i32], align 16
  %9 = alloca [400 x i32], align 16
  %10 = alloca float, align 4
  %11 = alloca float, align 4
  store i32 0, i32* %1, align 4
  store float 0.000000e+00, float* %10, align 4
  store float 0.000000e+00, float* %11, align 4
  %12 = getelementptr inbounds [400 x i32], [400 x i32]* %8, i64 0, i64 0
  %13 = bitcast i32* %12 to i8*
  call void @llvm.memset.p0i8.i64(i8* align 16 %13, i8 0, i64 1600, i1 false)
  %14 = getelementptr inbounds [400 x i32], [400 x i32]* %9, i64 0, i64 0
  %15 = bitcast i32* %14 to i8*
  call void @llvm.memset.p0i8.i64(i8* align 16 %15, i8 0, i64 1600, i1 false)
  %16 = call i32 (i8*, ...) @__isoc99_scanf(i8* getelementptr inbounds ([3 x i8], [3 x i8]* @.str, i64 0, i64 0), i32* %7)
  store i32 1, i32* %2, align 4
  br label %17

17:                                               ; preds = %33, %0
  %18 = load i32, i32* %2, align 4
  %19 = load i32, i32* %7, align 4
  %20 = icmp sle i32 %18, %19
  br i1 %20, label %21, label %36

21:                                               ; preds = %17
  %22 = load i32, i32* %2, align 4
  %23 = sext i32 %22 to i64
  %24 = getelementptr inbounds [400 x i32], [400 x i32]* %8, i64 0, i64 %23
  %25 = call i32 (i8*, ...) @__isoc99_scanf(i8* getelementptr inbounds ([3 x i8], [3 x i8]* @.str, i64 0, i64 0), i32* %24)
  %26 = load float, float* %10, align 4
  %27 = load i32, i32* %2, align 4
  %28 = sext i32 %27 to i64
  %29 = getelementptr inbounds [400 x i32], [400 x i32]* %8, i64 0, i64 %28
  %30 = load i32, i32* %29, align 4
  %31 = sitofp i32 %30 to float
  %32 = fadd float %26, %31
  store float %32, float* %10, align 4
  br label %33

33:                                               ; preds = %21
  %34 = load i32, i32* %2, align 4
  %35 = add nsw i32 %34, 1
  store i32 %35, i32* %2, align 4
  br label %17

36:                                               ; preds = %17
  %37 = load float, float* %10, align 4
  %38 = load i32, i32* %7, align 4
  %39 = sitofp i32 %38 to float
  %40 = fdiv float %37, %39
  store float %40, float* %10, align 4
  store i32 1, i32* %2, align 4
  br label %41

41:                                               ; preds = %83, %36
  %42 = load i32, i32* %2, align 4
  %43 = load i32, i32* %7, align 4
  %44 = icmp slt i32 %42, %43
  br i1 %44, label %45, label %86

45:                                               ; preds = %41
  %46 = load i32, i32* %2, align 4
  %47 = add nsw i32 %46, 1
  store i32 %47, i32* %3, align 4
  br label %48

48:                                               ; preds = %79, %45
  %49 = load i32, i32* %3, align 4
  %50 = load i32, i32* %7, align 4
  %51 = icmp sle i32 %49, %50
  br i1 %51, label %52, label %82

52:                                               ; preds = %48
  %53 = load i32, i32* %2, align 4
  %54 = sext i32 %53 to i64
  %55 = getelementptr inbounds [400 x i32], [400 x i32]* %8, i64 0, i64 %54
  %56 = load i32, i32* %55, align 4
  %57 = load i32, i32* %3, align 4
  %58 = sext i32 %57 to i64
  %59 = getelementptr inbounds [400 x i32], [400 x i32]* %8, i64 0, i64 %58
  %60 = load i32, i32* %59, align 4
  %61 = icmp sgt i32 %56, %60
  br i1 %61, label %62, label %78

62:                                               ; preds = %52
  %63 = load i32, i32* %2, align 4
  %64 = sext i32 %63 to i64
  %65 = getelementptr inbounds [400 x i32], [400 x i32]* %8, i64 0, i64 %64
  %66 = load i32, i32* %65, align 4
  store i32 %66, i32* %4, align 4
  %67 = load i32, i32* %3, align 4
  %68 = sext i32 %67 to i64
  %69 = getelementptr inbounds [400 x i32], [400 x i32]* %8, i64 0, i64 %68
  %70 = load i32, i32* %69, align 4
  %71 = load i32, i32* %2, align 4
  %72 = sext i32 %71 to i64
  %73 = getelementptr inbounds [400 x i32], [400 x i32]* %8, i64 0, i64 %72
  store i32 %70, i32* %73, align 4
  %74 = load i32, i32* %4, align 4
  %75 = load i32, i32* %3, align 4
  %76 = sext i32 %75 to i64
  %77 = getelementptr inbounds [400 x i32], [400 x i32]* %8, i64 0, i64 %76
  store i32 %74, i32* %77, align 4
  br label %78

78:                                               ; preds = %62, %52
  br label %79

79:                                               ; preds = %78
  %80 = load i32, i32* %3, align 4
  %81 = add nsw i32 %80, 1
  store i32 %81, i32* %3, align 4
  br label %48

82:                                               ; preds = %48
  br label %83

83:                                               ; preds = %82
  %84 = load i32, i32* %2, align 4
  %85 = add nsw i32 %84, 1
  store i32 %85, i32* %2, align 4
  br label %41

86:                                               ; preds = %41
  store i32 1, i32* %2, align 4
  br label %87

87:                                               ; preds = %116, %86
  %88 = load i32, i32* %2, align 4
  %89 = load i32, i32* %7, align 4
  %90 = icmp sle i32 %88, %89
  br i1 %90, label %91, label %119

91:                                               ; preds = %87
  %92 = load i32, i32* %2, align 4
  %93 = sext i32 %92 to i64
  %94 = getelementptr inbounds [400 x i32], [400 x i32]* %8, i64 0, i64 %93
  %95 = load i32, i32* %94, align 4
  %96 = sitofp i32 %95 to float
  %97 = load float, float* %10, align 4
  %98 = fsub float %96, %97
  %99 = fpext float %98 to double
  %100 = call double @llvm.fabs.f64(double %99)
  %101 = load float, float* %11, align 4
  %102 = fpext float %101 to double
  %103 = fcmp ogt double %100, %102
  br i1 %103, label %104, label %115

104:                                              ; preds = %91
  %105 = load i32, i32* %2, align 4
  %106 = sext i32 %105 to i64
  %107 = getelementptr inbounds [400 x i32], [400 x i32]* %8, i64 0, i64 %106
  %108 = load i32, i32* %107, align 4
  %109 = sitofp i32 %108 to float
  %110 = load float, float* %10, align 4
  %111 = fsub float %109, %110
  %112 = fpext float %111 to double
  %113 = call double @llvm.fabs.f64(double %112)
  %114 = fptrunc double %113 to float
  store float %114, float* %11, align 4
  br label %115

115:                                              ; preds = %104, %91
  br label %116

116:                                              ; preds = %115
  %117 = load i32, i32* %2, align 4
  %118 = add nsw i32 %117, 1
  store i32 %118, i32* %2, align 4
  br label %87

119:                                              ; preds = %87
  store i32 0, i32* %5, align 4
  store i32 1, i32* %2, align 4
  br label %120

120:                                              ; preds = %150, %119
  %121 = load i32, i32* %2, align 4
  %122 = load i32, i32* %7, align 4
  %123 = icmp sle i32 %121, %122
  br i1 %123, label %124, label %153

124:                                              ; preds = %120
  %125 = load i32, i32* %2, align 4
  %126 = sext i32 %125 to i64
  %127 = getelementptr inbounds [400 x i32], [400 x i32]* %8, i64 0, i64 %126
  %128 = load i32, i32* %127, align 4
  %129 = sitofp i32 %128 to float
  %130 = load float, float* %10, align 4
  %131 = fsub float %129, %130
  %132 = fpext float %131 to double
  %133 = call double @llvm.fabs.f64(double %132)
  %134 = load float, float* %11, align 4
  %135 = fpext float %134 to double
  %136 = fsub double %133, %135
  %137 = call double @llvm.fabs.f64(double %136)
  %138 = fcmp olt double %137, 1.000000e-04
  br i1 %138, label %139, label %149

139:                                              ; preds = %124
  %140 = load i32, i32* %5, align 4
  %141 = add nsw i32 %140, 1
  store i32 %141, i32* %5, align 4
  %142 = load i32, i32* %2, align 4
  %143 = sext i32 %142 to i64
  %144 = getelementptr inbounds [400 x i32], [400 x i32]* %8, i64 0, i64 %143
  %145 = load i32, i32* %144, align 4
  %146 = load i32, i32* %5, align 4
  %147 = sext i32 %146 to i64
  %148 = getelementptr inbounds [400 x i32], [400 x i32]* %9, i64 0, i64 %147
  store i32 %145, i32* %148, align 4
  br label %149

149:                                              ; preds = %139, %124
  br label %150

150:                                              ; preds = %149
  %151 = load i32, i32* %2, align 4
  %152 = add nsw i32 %151, 1
  store i32 %152, i32* %2, align 4
  br label %120

153:                                              ; preds = %120
  store i32 1, i32* %2, align 4
  br label %154

154:                                              ; preds = %164, %153
  %155 = load i32, i32* %2, align 4
  %156 = load i32, i32* %5, align 4
  %157 = icmp slt i32 %155, %156
  br i1 %157, label %158, label %167

158:                                              ; preds = %154
  %159 = load i32, i32* %2, align 4
  %160 = sext i32 %159 to i64
  %161 = getelementptr inbounds [400 x i32], [400 x i32]* %9, i64 0, i64 %160
  %162 = load i32, i32* %161, align 4
  %163 = call i32 (i8*, ...) @printf(i8* getelementptr inbounds ([4 x i8], [4 x i8]* @.str.1, i64 0, i64 0), i32 %162)
  br label %164

164:                                              ; preds = %158
  %165 = load i32, i32* %2, align 4
  %166 = add nsw i32 %165, 1
  store i32 %166, i32* %2, align 4
  br label %154

167:                                              ; preds = %154
  %168 = load i32, i32* %5, align 4
  %169 = sext i32 %168 to i64
  %170 = getelementptr inbounds [400 x i32], [400 x i32]* %9, i64 0, i64 %169
  %171 = load i32, i32* %170, align 4
  %172 = call i32 (i8*, ...) @printf(i8* getelementptr inbounds ([3 x i8], [3 x i8]* @.str, i64 0, i64 0), i32 %171)
  %173 = load i32, i32* %1, align 4
  ret i32 %173
}

; Function Attrs: argmemonly nounwind willreturn
declare void @llvm.memset.p0i8.i64(i8* nocapture writeonly, i8, i64, i1 immarg) #1

declare dso_local i32 @__isoc99_scanf(i8*, ...) #2

; Function Attrs: nounwind readnone speculatable willreturn
declare double @llvm.fabs.f64(double) #3

declare dso_local i32 @printf(i8*, ...) #2


!llvm.module.flags = !{!0}
!llvm.ident = !{!1}

!0 = !{i32 1, !"wchar_size", i32 4}
!1 = !{!"clang version 10.0.0-4ubuntu1 "}
